target datalayout = "e-m:e-p270:32:32-p271:32:32-p272:64:64-i64:64-i128:128-f80:128-n8:16:32:64-S128"
target triple = "x86_64-pc-linux-gnu"

%struct.RBasic = type { i64, i64 }

@.str.12 = private unnamed_addr constant [10 x i8] c"../yjit.c\00", align 1
@__func__.rb_assert_cme_handle = private unnamed_addr constant [21 x i8] c"rb_assert_cme_handle\00", align 1
@.str.24 = private unnamed_addr constant [38 x i8] c"!rb_objspace_garbage_object_p(handle)\00", align 1
@.str.25 = private unnamed_addr constant [33 x i8] c"IMEMO_TYPE_P(handle, imemo_ment)\00", align 1

; Function Attrs: inlinehint nounwind sspstrong willreturn memory(none) uwtable
define internal zeroext i1 @RB_IMMEDIATE_P(i64 noundef %0) #18 {
  %2 = alloca i64, align 8
  store i64 %0, ptr %2, align 8, !tbaa !13
  %3 = load i64, ptr %2, align 8, !tbaa !13
  %4 = and i64 %3, 7
  %5 = icmp ne i64 %4, 0
  ret i1 %5
}

; Function Attrs: inlinehint nounwind sspstrong willreturn memory(none) uwtable
define internal zeroext i1 @RB_SPECIAL_CONST_P(i64 noundef %0) #18 {
  %2 = alloca i64, align 8
  store i64 %0, ptr %2, align 8, !tbaa !13
  %3 = load i64, ptr %2, align 8, !tbaa !13
  %4 = icmp eq i64 %3, 0
  br i1 %4, label %8, label %5

5:                                                ; preds = %1
  %6 = load i64, ptr %2, align 8, !tbaa !13
  %7 = call zeroext i1 @RB_IMMEDIATE_P(i64 noundef %6) #27
  br label %8

8:                                                ; preds = %5, %1
  %9 = phi i1 [ true, %1 ], [ %7, %5 ]
  ret i1 %9
}

; Function Attrs: inlinehint nounwind sspstrong uwtable
define internal i32 @imemo_type_p(i64 noundef %0, i32 noundef %1) #7 {
  %3 = alloca i32, align 4
  %4 = alloca i64, align 8
  %5 = alloca i32, align 4
  %6 = alloca i64, align 8
  %7 = alloca i64, align 8
  store i64 %0, ptr %4, align 8, !tbaa !13
  store i32 %1, ptr %5, align 4, !tbaa !11
  %8 = load i64, ptr %4, align 8, !tbaa !13
  %9 = call zeroext i1 @RB_SPECIAL_CONST_P(i64 noundef %8) #27
  %10 = xor i1 %9, true
  %11 = xor i1 %10, true
  %12 = xor i1 %11, true
  %13 = zext i1 %12 to i32
  %14 = sext i32 %13 to i64
  %15 = call i64 @llvm.expect.i64(i64 %14, i64 1)
  %16 = icmp ne i64 %15, 0
  br i1 %16, label %17, label %30

17:                                               ; preds = %2
  call void @llvm.lifetime.start.p0(i64 8, ptr %6) #5
  store i64 61471, ptr %6, align 8, !tbaa !13
  call void @llvm.lifetime.start.p0(i64 8, ptr %7) #5
  %18 = load i32, ptr %5, align 4, !tbaa !11
  %19 = shl i32 %18, 12
  %20 = or i32 %19, 26
  %21 = zext i32 %20 to i64
  store i64 %21, ptr %7, align 8, !tbaa !13
  %22 = load i64, ptr %7, align 8, !tbaa !13
  %23 = load i64, ptr %4, align 8, !tbaa !13
  %24 = inttoptr i64 %23 to ptr
  %25 = getelementptr inbounds nuw %struct.RBasic, ptr %24, i32 0, i32 0
  %26 = load i64, ptr %25, align 8, !tbaa !107
  %27 = and i64 %26, 61471
  %28 = icmp eq i64 %22, %27
  %29 = zext i1 %28 to i32
  store i32 %29, ptr %3, align 4
  call void @llvm.lifetime.end.p0(i64 8, ptr %7) #5
  call void @llvm.lifetime.end.p0(i64 8, ptr %6) #5
  br label %31

30:                                               ; preds = %2
  store i32 0, ptr %3, align 4
  br label %31

31:                                               ; preds = %30, %17
  %32 = load i32, ptr %3, align 4
  ret i32 %32
}

; Function Attrs: nounwind sspstrong uwtable
define hidden void @rb_assert_cme_handle(i64 noundef %0) #0 {
  %2 = alloca i64, align 8
  store i64 %0, ptr %2, align 8, !tbaa !13
  %3 = load i64, ptr %2, align 8, !tbaa !13
  %4 = call i32 @rb_objspace_garbage_object_p(i64 noundef %3)
  %5 = icmp ne i32 %4, 0
  %6 = xor i1 %5, true
  %7 = xor i1 %6, true
  %8 = xor i1 %7, true
  %9 = zext i1 %8 to i32
  %10 = sext i32 %9 to i64
  %11 = call i64 @llvm.expect.i64(i64 %10, i64 1)
  %12 = icmp ne i64 %11, 0
  br i1 %12, label %13, label %14

13:                                               ; preds = %1
  br label %16

14:                                               ; preds = %1
  call void @rb_assert_failure(ptr noundef @.str.12, i32 noundef 1081, ptr noundef @__func__.rb_assert_cme_handle, ptr noundef @.str.24) #24
  unreachable

15:                                               ; No predecessors!
  br label %16

16:                                               ; preds = %15, %13
  %17 = load i64, ptr %2, align 8, !tbaa !13
  %18 = call i32 @imemo_type_p(i64 noundef %17, i32 noundef 6)
  %19 = icmp ne i32 %18, 0
  %20 = xor i1 %19, true
  %21 = xor i1 %20, true
  %22 = zext i1 %21 to i32
  %23 = sext i32 %22 to i64
  %24 = call i64 @llvm.expect.i64(i64 %23, i64 1)
  %25 = icmp ne i64 %24, 0
  br i1 %25, label %26, label %27

26:                                               ; preds = %16
  br label %29

27:                                               ; preds = %16
  call void @rb_assert_failure(ptr noundef @.str.12, i32 noundef 1082, ptr noundef @__func__.rb_assert_cme_handle, ptr noundef @.str.25) #24
  unreachable

28:                                               ; No predecessors!
  br label %29

29:                                               ; preds = %28, %26
  ret void
}