; Function Attrs: nounwind sspstrong uwtable
define hidden void @rb_assert_cme_handle(i64 noundef %0) local_unnamed_addr #0 {
  %2 = tail call i32 @rb_objspace_garbage_object_p(i64 noundef %0) #5
  %.not = icmp eq i32 %2, 0
  br i1 %.not, label %4, label %3, !prof !55

3:                                                ; preds = %1
  tail call void @rb_assert_failure(ptr noundef nonnull @.str.12, i32 noundef 1081, ptr noundef nonnull @__func__.rb_assert_cme_handle, ptr noundef nonnull @.str.24) #24
  unreachable

4:                                                ; preds = %1
  %5 = icmp eq i64 %0, 0
  %6 = and i64 %0, 7
  %7 = icmp ne i64 %6, 0
  %8 = or i1 %5, %7
  br i1 %8, label %imemo_type_p.exit.thread, label %imemo_type_p.exit, !prof !113

imemo_type_p.exit:                                ; preds = %4
  %9 = inttoptr i64 %0 to ptr
  %10 = load i64, ptr %9, align 8, !tbaa !11
  %11 = and i64 %10, 61471
  %.not5 = icmp eq i64 %11, 24602
  br i1 %.not5, label %12, label %imemo_type_p.exit.thread, !prof !114

imemo_type_p.exit.thread:                         ; preds = %4, %imemo_type_p.exit
  tail call void @rb_assert_failure(ptr noundef nonnull @.str.12, i32 noundef 1082, ptr noundef nonnull @__func__.rb_assert_cme_handle, ptr noundef nonnull @.str.25) #24
  unreachable

12:                                               ; preds = %imemo_type_p.exit
  ret void
}